	.syntax unified
	.cpu cortex-m4
	.fpu softvfp
	.eabi_attribute 20, 1
	.eabi_attribute 21, 1
	.eabi_attribute 23, 3
	.eabi_attribute 24, 1
	.eabi_attribute 25, 1
	.eabi_attribute 26, 1
	.eabi_attribute 30, 2
	.eabi_attribute 34, 1
	.eabi_attribute 18, 4
	.thumb
	.file	"stm32f4xx_tim.c"
	.text
.Ltext0:
	.cfi_sections	.debug_frame
	.section	.text.TIM_TimeBaseInit,"ax",%progbits
	.align	2
	.global	TIM_TimeBaseInit
	.thumb
	.thumb_func
	.type	TIM_TimeBaseInit, %function
TIM_TimeBaseInit:
.LFB112:
	.file 1 "./added/stm32f4xx_tim.c"
	.loc 1 290 0
	.cfi_startproc
	@ args = 0, pretend = 0, frame = 0
	@ frame_needed = 0, uses_anonymous_args = 0
	@ link register save eliminated.
.LVL0:
	.loc 1 300 0
	movs	r2, #0
	.loc 1 290 0
	push	{r4, r5, r6}
.LCFI0:
	.cfi_def_cfa_offset 12
	.cfi_offset 4, -12
	.cfi_offset 5, -8
	.cfi_offset 6, -4
	.loc 1 300 0
	mov	r4, #1024
	movt	r2, 16385
	.loc 1 298 0
	ldrh	r3, [r0, #0]
	.loc 1 300 0
	movt	r4, 16385
	cmp	r0, r2
	it	ne
	cmpne	r0, r4
	.loc 1 298 0
	uxth	r3, r3
.LVL1:
	.loc 1 300 0
	ite	ne
	movne	r2, #0
	moveq	r2, #1
	beq	.L2
	.loc 1 301 0
	mov	r4, #1024
	movt	r4, 16384
	cmp	r0, #1073741824
	it	ne
	cmpne	r0, r4
	bne	.L16
.L2:
	.loc 1 305 0
	movw	r5, #65423
	.loc 1 306 0
	ldrh	r4, [r1, #2]
	.loc 1 305 0
	ands	r5, r5, r3
.LVL2:
	.loc 1 306 0
	orr	r3, r5, r4
.LVL3:
.L3:
	.loc 1 309 0
	mov	r6, #5120
	mov	r5, #4096
	movt	r5, 16384
	movt	r6, 16384
	cmp	r0, r6
	it	ne
	cmpne	r0, r5
	.loc 1 313 0
	itttt	ne
	ldrhne	r5, [r1, #8]
	.loc 1 312 0
	movwne	r4, #64767
	andne	r4, r3, r4
.LVL4:
	.loc 1 313 0
	orrne	r3, r4, r5
.LVL5:
	.loc 1 319 0
	ldr	r5, [r1, #4]
	.loc 1 322 0
	ldrh	r4, [r1, #0]
	.loc 1 316 0
	strh	r3, [r0, #0]	@ movhi
	.loc 1 319 0
	str	r5, [r0, #44]
	.loc 1 322 0
	strh	r4, [r0, #40]	@ movhi
	.loc 1 324 0
	cbz	r2, .L5
	.loc 1 327 0
	ldrb	r3, [r1, #10]	@ zero_extendqisi2
.LVL6:
	strh	r3, [r0, #48]	@ movhi
.L5:
	.loc 1 332 0
	movs	r3, #1
	strh	r3, [r0, #20]	@ movhi
	.loc 1 333 0
	pop	{r4, r5, r6}
	bx	lr
.LVL7:
.L16:
	.loc 1 302 0
	mov	r5, #3072
	mov	r4, #2048
	movt	r5, 16384
	movt	r4, 16384
	cmp	r0, r4
	it	ne
	cmpne	r0, r5
	bne	.L3
	b	.L2
	.cfi_endproc
.LFE112:
	.size	TIM_TimeBaseInit, .-TIM_TimeBaseInit
	.section	.text.TIM_TimeBaseStructInit,"ax",%progbits
	.align	2
	.global	TIM_TimeBaseStructInit
	.thumb
	.thumb_func
	.type	TIM_TimeBaseStructInit, %function
TIM_TimeBaseStructInit:
.LFB113:
	.loc 1 342 0
	.cfi_startproc
	@ args = 0, pretend = 0, frame = 0
	@ frame_needed = 0, uses_anonymous_args = 0
	@ link register save eliminated.
.LVL8:
	.loc 1 345 0
	movs	r3, #0
	.loc 1 344 0
	mov	r1, #-1
	str	r1, [r0, #4]
	.loc 1 345 0
	strh	r3, [r0, #0]	@ movhi
	.loc 1 346 0
	strh	r3, [r0, #8]	@ movhi
	.loc 1 347 0
	strh	r3, [r0, #2]	@ movhi
	.loc 1 348 0
	strb	r3, [r0, #10]
	bx	lr
	.cfi_endproc
.LFE113:
	.size	TIM_TimeBaseStructInit, .-TIM_TimeBaseStructInit
	.section	.text.TIM_PrescalerConfig,"ax",%progbits
	.align	2
	.global	TIM_PrescalerConfig
	.thumb
	.thumb_func
	.type	TIM_PrescalerConfig, %function
TIM_PrescalerConfig:
.LFB114:
	.loc 1 362 0
	.cfi_startproc
	@ args = 0, pretend = 0, frame = 0
	@ frame_needed = 0, uses_anonymous_args = 0
	@ link register save eliminated.
.LVL9:
	.loc 1 367 0
	strh	r1, [r0, #40]	@ movhi
	.loc 1 369 0
	strh	r2, [r0, #20]	@ movhi
	bx	lr
	.cfi_endproc
.LFE114:
	.size	TIM_PrescalerConfig, .-TIM_PrescalerConfig
	.section	.text.TIM_Cmd,"ax",%progbits
	.align	2
	.global	TIM_Cmd
	.thumb
	.thumb_func
	.type	TIM_Cmd, %function
TIM_Cmd:
.LFB115:
	.loc 1 594 0
	.cfi_startproc
	@ args = 0, pretend = 0, frame = 0
	@ frame_needed = 0, uses_anonymous_args = 0
	@ link register save eliminated.
.LVL10:
	.loc 1 602 0
	ldrh	r3, [r0, #0]
	.loc 1 599 0
	cbnz	r1, .L22
	.loc 1 607 0
	bic	r3, r3, #1
	lsls	r3, r3, #16
	lsrs	r3, r3, #16
	strh	r3, [r0, #0]	@ movhi
	bx	lr
.L22:
	.loc 1 602 0
	uxth	r3, r3
	orr	r3, r3, #1
	strh	r3, [r0, #0]	@ movhi
	bx	lr
	.cfi_endproc
.LFE115:
	.size	TIM_Cmd, .-TIM_Cmd
	.section	.text.TIM_OC1Init,"ax",%progbits
	.align	2
	.global	TIM_OC1Init
	.thumb
	.thumb_func
	.type	TIM_OC1Init, %function
TIM_OC1Init:
.LFB116:
	.loc 1 675 0
	.cfi_startproc
	@ args = 0, pretend = 0, frame = 0
	@ frame_needed = 0, uses_anonymous_args = 0
	@ link register save eliminated.
.LVL11:
	push	{r4, r5, r6, r7, r8}
.LCFI1:
	.cfi_def_cfa_offset 20
	.cfi_offset 4, -20
	.cfi_offset 5, -16
	.cfi_offset 6, -12
	.cfi_offset 7, -8
	.cfi_offset 8, -4
	.loc 1 685 0
	ldrh	r4, [r0, #32]
	.loc 1 704 0
	ldrh	r5, [r1, #12]
	ldrh	r7, [r1, #2]
	.loc 1 699 0
	ldrh	ip, [r1, #0]
	.loc 1 685 0
	bic	r4, r4, #1
	lsls	r4, r4, #16
	lsrs	r4, r4, #16
	strh	r4, [r0, #32]	@ movhi
	.loc 1 688 0
	ldrh	r3, [r0, #32]
.LVL12:
	.loc 1 690 0
	ldrh	r4, [r0, #4]
	.loc 1 693 0
	ldrh	r2, [r0, #24]
	.loc 1 704 0
	orrs	r7, r7, r5
	.loc 1 702 0
	bic	r3, r3, #2
.LVL13:
	.loc 1 709 0
	movs	r5, #0
	.loc 1 697 0
	bic	r2, r2, #115
	.loc 1 709 0
	mov	r6, #1024
	.loc 1 697 0
	lsls	r2, r2, #16
	.loc 1 702 0
	lsls	r3, r3, #16
	.loc 1 709 0
	movt	r6, 16385
	movt	r5, 16385
	.loc 1 697 0
	lsrs	r2, r2, #16
	.loc 1 702 0
	lsrs	r3, r3, #16
	.loc 1 704 0
	uxth	r7, r7
	.loc 1 709 0
	cmp	r0, r5
	it	ne
	cmpne	r0, r6
	.loc 1 690 0
	uxth	r4, r4
.LVL14:
	.loc 1 699 0
	orr	r2, r2, ip
.LVL15:
	.loc 1 707 0
	orr	r3, r7, r3
.LVL16:
	.loc 1 709 0
	bne	.L24
	.loc 1 717 0
	movw	r5, #65527
	.loc 1 719 0
	ldrh	ip, [r1, #14]
	.loc 1 729 0
	ldrh	r8, [r1, #18]
	ldrh	r7, [r1, #16]
	.loc 1 724 0
	ldrh	r6, [r1, #4]
	.loc 1 717 0
	ands	r5, r5, r3
.LVL17:
	.loc 1 719 0
	orr	ip, r5, ip
.LVL18:
	.loc 1 721 0
	movw	r3, #65531
	.loc 1 727 0
	movw	r5, #64767
	.loc 1 729 0
	orr	r7, r8, r7
	.loc 1 727 0
	ands	r5, r5, r4
	.loc 1 721 0
	and	r3, ip, r3
.LVL19:
	.loc 1 729 0
	uxth	r4, r7
.LVL20:
	.loc 1 724 0
	orrs	r3, r3, r6
.LVL21:
	.loc 1 731 0
	orrs	r4, r4, r5
.LVL22:
.L24:
	.loc 1 740 0
	ldr	r1, [r1, #8]
.LVL23:
	.loc 1 734 0
	strh	r4, [r0, #4]	@ movhi
	.loc 1 737 0
	strh	r2, [r0, #24]	@ movhi
	.loc 1 740 0
	str	r1, [r0, #52]
	.loc 1 743 0
	strh	r3, [r0, #32]	@ movhi
	.loc 1 744 0
	pop	{r4, r5, r6, r7, r8}
	bx	lr
	.cfi_endproc
.LFE116:
	.size	TIM_OC1Init, .-TIM_OC1Init
	.section	.text.TIM_OC2Init,"ax",%progbits
	.align	2
	.global	TIM_OC2Init
	.thumb
	.thumb_func
	.type	TIM_OC2Init, %function
TIM_OC2Init:
.LFB117:
	.loc 1 756 0
	.cfi_startproc
	@ args = 0, pretend = 0, frame = 0
	@ frame_needed = 0, uses_anonymous_args = 0
	@ link register save eliminated.
.LVL24:
	push	{r4, r5, r6, r7, r8, r9}
.LCFI2:
	.cfi_def_cfa_offset 24
	.cfi_offset 4, -24
	.cfi_offset 5, -20
	.cfi_offset 6, -16
	.cfi_offset 7, -12
	.cfi_offset 8, -8
	.cfi_offset 9, -4
	.loc 1 766 0
	ldrh	r4, [r0, #32]
	.loc 1 786 0
	ldrh	r5, [r1, #12]
	.loc 1 781 0
	ldrh	ip, [r1, #0]
	.loc 1 789 0
	ldrh	r7, [r1, #2]
	.loc 1 766 0
	bic	r4, r4, #16
	lsls	r4, r4, #16
	lsrs	r4, r4, #16
	strh	r4, [r0, #32]	@ movhi
	.loc 1 769 0
	ldrh	r2, [r0, #32]
.LVL25:
	.loc 1 771 0
	ldrh	r4, [r0, #4]
	.loc 1 774 0
	ldrh	r3, [r0, #24]
	.loc 1 784 0
	bic	r2, r2, #32
.LVL26:
	lsls	r2, r2, #16
	lsrs	r2, r2, #16
	.loc 1 778 0
	bic	r3, r3, #29440
	lsls	r3, r3, #16
	.loc 1 786 0
	orr	r2, r2, r5, lsl #4
	.loc 1 791 0
	mov	r6, #1024
	movs	r5, #0
	.loc 1 778 0
	lsrs	r3, r3, #16
	.loc 1 791 0
	movt	r6, 16385
	movt	r5, 16385
	.loc 1 781 0
	orr	r3, r3, ip, lsl #8
	.loc 1 789 0
	orr	r2, r2, r7, lsl #4
	.loc 1 791 0
	cmp	r0, r5
	it	ne
	cmpne	r0, r6
	.loc 1 771 0
	uxth	r4, r4
.LVL27:
	.loc 1 781 0
	uxth	r3, r3
.LVL28:
	.loc 1 789 0
	uxth	r2, r2
.LVL29:
	.loc 1 791 0
	bne	.L29
	.loc 1 799 0
	movw	r6, #65407
	.loc 1 801 0
	ldrh	r9, [r1, #14]
	.loc 1 811 0
	ldrh	r8, [r1, #16]
	.loc 1 806 0
	ldrh	ip, [r1, #4]
	.loc 1 813 0
	ldrh	r7, [r1, #18]
	.loc 1 799 0
	ands	r6, r6, r2
.LVL30:
	.loc 1 809 0
	movw	r5, #62463
	ands	r5, r5, r4
	.loc 1 801 0
	orr	r6, r6, r9, lsl #4
.LVL31:
	.loc 1 803 0
	movw	r2, #65471
	ands	r2, r2, r6
.LVL32:
	.loc 1 811 0
	orr	r4, r5, r8, lsl #2
.LVL33:
	.loc 1 806 0
	orr	r2, r2, ip, lsl #4
.LVL34:
	.loc 1 813 0
	orr	r4, r4, r7, lsl #2
	.loc 1 806 0
	uxth	r2, r2
.LVL35:
	.loc 1 813 0
	uxth	r4, r4
.LVL36:
.L29:
	.loc 1 822 0
	ldr	r1, [r1, #8]
.LVL37:
	.loc 1 816 0
	strh	r4, [r0, #4]	@ movhi
	.loc 1 819 0
	strh	r3, [r0, #24]	@ movhi
	.loc 1 822 0
	str	r1, [r0, #56]
	.loc 1 825 0
	strh	r2, [r0, #32]	@ movhi
	.loc 1 826 0
	pop	{r4, r5, r6, r7, r8, r9}
	bx	lr
	.cfi_endproc
.LFE117:
	.size	TIM_OC2Init, .-TIM_OC2Init
	.section	.text.TIM_OC3Init,"ax",%progbits
	.align	2
	.global	TIM_OC3Init
	.thumb
	.thumb_func
	.type	TIM_OC3Init, %function
TIM_OC3Init:
.LFB118:
	.loc 1 837 0
	.cfi_startproc
	@ args = 0, pretend = 0, frame = 0
	@ frame_needed = 0, uses_anonymous_args = 0
	@ link register save eliminated.
.LVL38:
	push	{r4, r5, r6, r7, r8, r9}
.LCFI3:
	.cfi_def_cfa_offset 24
	.cfi_offset 4, -24
	.cfi_offset 5, -20
	.cfi_offset 6, -16
	.cfi_offset 7, -12
	.cfi_offset 8, -8
	.cfi_offset 9, -4
	.loc 1 847 0
	ldrh	r4, [r0, #32]
	.loc 1 866 0
	ldrh	r5, [r1, #12]
	.loc 1 869 0
	ldrh	ip, [r1, #2]
	.loc 1 861 0
	ldrh	r7, [r1, #0]
	.loc 1 847 0
	bic	r4, r4, #256
	lsls	r4, r4, #16
	lsrs	r4, r4, #16
	strh	r4, [r0, #32]	@ movhi
	.loc 1 850 0
	ldrh	r2, [r0, #32]
.LVL39:
	.loc 1 852 0
	ldrh	r4, [r0, #4]
	.loc 1 855 0
	ldrh	r3, [r0, #28]
	.loc 1 864 0
	bic	r2, r2, #512
.LVL40:
	lsls	r2, r2, #16
	lsrs	r2, r2, #16
	.loc 1 866 0
	orr	r2, r2, r5, lsl #8
	.loc 1 859 0
	bic	r3, r3, #115
	.loc 1 871 0
	movs	r5, #0
	mov	r6, #1024
	.loc 1 859 0
	lsls	r3, r3, #16
	.loc 1 871 0
	movt	r6, 16385
	movt	r5, 16385
	.loc 1 859 0
	lsrs	r3, r3, #16
	.loc 1 869 0
	orr	r2, r2, ip, lsl #8
	.loc 1 871 0
	cmp	r0, r5
	it	ne
	cmpne	r0, r6
	.loc 1 852 0
	uxth	r4, r4
.LVL41:
	.loc 1 861 0
	orr	r3, r3, r7
.LVL42:
	.loc 1 869 0
	uxth	r2, r2
.LVL43:
	.loc 1 871 0
	bne	.L34
	.loc 1 879 0
	movw	r6, #63487
	.loc 1 881 0
	ldrh	r9, [r1, #14]
	.loc 1 891 0
	ldrh	r8, [r1, #16]
	.loc 1 886 0
	ldrh	ip, [r1, #4]
	.loc 1 893 0
	ldrh	r7, [r1, #18]
	.loc 1 879 0
	ands	r6, r6, r2
.LVL44:
	.loc 1 889 0
	movw	r5, #53247
	ands	r5, r5, r4
	.loc 1 881 0
	orr	r6, r6, r9, lsl #8
.LVL45:
	.loc 1 883 0
	movw	r2, #64511
	ands	r2, r2, r6
.LVL46:
	.loc 1 891 0
	orr	r4, r5, r8, lsl #4
.LVL47:
	.loc 1 886 0
	orr	r2, r2, ip, lsl #8
.LVL48:
	.loc 1 893 0
	orr	r4, r4, r7, lsl #4
	.loc 1 886 0
	uxth	r2, r2
.LVL49:
	.loc 1 893 0
	uxth	r4, r4
.LVL50:
.L34:
	.loc 1 902 0
	ldr	r1, [r1, #8]
.LVL51:
	.loc 1 896 0
	strh	r4, [r0, #4]	@ movhi
	.loc 1 899 0
	strh	r3, [r0, #28]	@ movhi
	.loc 1 902 0
	str	r1, [r0, #60]
	.loc 1 905 0
	strh	r2, [r0, #32]	@ movhi
	.loc 1 906 0
	pop	{r4, r5, r6, r7, r8, r9}
	bx	lr
	.cfi_endproc
.LFE118:
	.size	TIM_OC3Init, .-TIM_OC3Init
	.section	.text.TIM_OC4Init,"ax",%progbits
	.align	2
	.global	TIM_OC4Init
	.thumb
	.thumb_func
	.type	TIM_OC4Init, %function
TIM_OC4Init:
.LFB119:
	.loc 1 917 0
	.cfi_startproc
	@ args = 0, pretend = 0, frame = 0
	@ frame_needed = 0, uses_anonymous_args = 0
	@ link register save eliminated.
.LVL52:
	push	{r4, r5, r6, r7}
.LCFI4:
	.cfi_def_cfa_offset 16
	.cfi_offset 4, -16
	.cfi_offset 5, -12
	.cfi_offset 6, -8
	.cfi_offset 7, -4
	.loc 1 927 0
	ldrh	r4, [r0, #32]
	.loc 1 947 0
	ldrh	r5, [r1, #12]
	.loc 1 942 0
	ldrh	ip, [r1, #0]
	.loc 1 950 0
	ldrh	r7, [r1, #2]
	.loc 1 927 0
	bic	r4, r4, #4096
	lsls	r4, r4, #16
	lsrs	r4, r4, #16
	strh	r4, [r0, #32]	@ movhi
	.loc 1 930 0
	ldrh	r2, [r0, #32]
.LVL53:
	.loc 1 932 0
	ldrh	r4, [r0, #4]
	.loc 1 935 0
	ldrh	r3, [r0, #28]
	.loc 1 945 0
	bic	r2, r2, #8192
.LVL54:
	lsls	r2, r2, #16
	lsrs	r2, r2, #16
	.loc 1 947 0
	orr	r2, r2, r5, lsl #12
	.loc 1 939 0
	bic	r3, r3, #29440
	.loc 1 952 0
	movs	r5, #0
	mov	r6, #1024
	movt	r5, 16385
	movt	r6, 16385
	.loc 1 939 0
	lsls	r3, r3, #16
	lsrs	r3, r3, #16
	.loc 1 952 0
	cmp	r0, r5
	it	ne
	cmpne	r0, r6
	.loc 1 958 0
	it	eq
	ldrheq	r6, [r1, #16]
	.loc 1 967 0
	ldr	r1, [r1, #8]
.LVL55:
	.loc 1 932 0
	uxth	r4, r4
	.loc 1 956 0
	ittt	eq
	movweq	r5, #49151
	andeq	r5, r4, r5
	.loc 1 958 0
	orreq	r4, r5, r6, lsl #6
	.loc 1 942 0
	orr	r3, r3, ip, lsl #8
.LVL56:
	.loc 1 950 0
	orr	r2, r2, r7, lsl #12
	.loc 1 942 0
	uxth	r3, r3
.LVL57:
	.loc 1 950 0
	uxth	r2, r2
.LVL58:
	.loc 1 958 0
	it	eq
	uxtheq	r4, r4
.LVL59:
	.loc 1 961 0
	strh	r4, [r0, #4]	@ movhi
	.loc 1 964 0
	strh	r3, [r0, #28]	@ movhi
	.loc 1 967 0
	str	r1, [r0, #64]
	.loc 1 970 0
	strh	r2, [r0, #32]	@ movhi
	.loc 1 971 0
	pop	{r4, r5, r6, r7}
	bx	lr
	.cfi_endproc
.LFE119:
	.size	TIM_OC4Init, .-TIM_OC4Init
	.section	.text.TIM_OCStructInit,"ax",%progbits
	.align	2
	.global	TIM_OCStructInit
	.thumb
	.thumb_func
	.type	TIM_OCStructInit, %function
TIM_OCStructInit:
.LFB120:
	.loc 1 980 0
	.cfi_startproc
	@ args = 0, pretend = 0, frame = 0
	@ frame_needed = 0, uses_anonymous_args = 0
	@ link register save eliminated.
.LVL60:
	.loc 1 982 0
	movs	r3, #0
	strh	r3, [r0, #0]	@ movhi
	.loc 1 983 0
	strh	r3, [r0, #2]	@ movhi
	.loc 1 984 0
	strh	r3, [r0, #4]	@ movhi
	.loc 1 985 0
	str	r3, [r0, #8]
	.loc 1 986 0
	strh	r3, [r0, #12]	@ movhi
	.loc 1 987 0
	strh	r3, [r0, #14]	@ movhi
	.loc 1 988 0
	strh	r3, [r0, #16]	@ movhi
	.loc 1 989 0
	strh	r3, [r0, #18]	@ movhi
	bx	lr
	.cfi_endproc
.LFE120:
	.size	TIM_OCStructInit, .-TIM_OCStructInit
	.section	.text.TIM_OC1PreloadConfig,"ax",%progbits
	.align	2
	.global	TIM_OC1PreloadConfig
	.thumb
	.thumb_func
	.type	TIM_OC1PreloadConfig, %function
TIM_OC1PreloadConfig:
.LFB121:
	.loc 1 1240 0
	.cfi_startproc
	@ args = 0, pretend = 0, frame = 0
	@ frame_needed = 0, uses_anonymous_args = 0
	@ link register save eliminated.
.LVL61:
	.loc 1 1247 0
	ldrh	r3, [r0, #24]
.LVL62:
	.loc 1 1250 0
	bic	r3, r3, #8
.LVL63:
	lsls	r3, r3, #16
	lsrs	r3, r3, #16
.LVL64:
	.loc 1 1253 0
	orrs	r1, r1, r3
.LVL65:
	.loc 1 1256 0
	strh	r1, [r0, #24]	@ movhi
	bx	lr
	.cfi_endproc
.LFE121:
	.size	TIM_OC1PreloadConfig, .-TIM_OC1PreloadConfig
	.section	.text.TIM_OC2PreloadConfig,"ax",%progbits
	.align	2
	.global	TIM_OC2PreloadConfig
	.thumb
	.thumb_func
	.type	TIM_OC2PreloadConfig, %function
TIM_OC2PreloadConfig:
.LFB122:
	.loc 1 1270 0
	.cfi_startproc
	@ args = 0, pretend = 0, frame = 0
	@ frame_needed = 0, uses_anonymous_args = 0
	@ link register save eliminated.
.LVL66:
	.loc 1 1277 0
	ldrh	r3, [r0, #24]
.LVL67:
	.loc 1 1280 0
	bic	r3, r3, #2048
.LVL68:
	lsls	r3, r3, #16
	lsrs	r3, r3, #16
.LVL69:
	.loc 1 1283 0
	orr	r1, r3, r1, lsl #8
.LVL70:
	uxth	r3, r1
.LVL71:
	.loc 1 1286 0
	strh	r3, [r0, #24]	@ movhi
	bx	lr
	.cfi_endproc
.LFE122:
	.size	TIM_OC2PreloadConfig, .-TIM_OC2PreloadConfig
	.section	.text.TIM_OC3PreloadConfig,"ax",%progbits
	.align	2
	.global	TIM_OC3PreloadConfig
	.thumb
	.thumb_func
	.type	TIM_OC3PreloadConfig, %function
TIM_OC3PreloadConfig:
.LFB123:
	.loc 1 1299 0
	.cfi_startproc
	@ args = 0, pretend = 0, frame = 0
	@ frame_needed = 0, uses_anonymous_args = 0
	@ link register save eliminated.
.LVL72:
	.loc 1 1306 0
	ldrh	r3, [r0, #28]
.LVL73:
	.loc 1 1309 0
	bic	r3, r3, #8
.LVL74:
	lsls	r3, r3, #16
	lsrs	r3, r3, #16
.LVL75:
	.loc 1 1312 0
	orrs	r1, r1, r3
.LVL76:
	.loc 1 1315 0
	strh	r1, [r0, #28]	@ movhi
	bx	lr
	.cfi_endproc
.LFE123:
	.size	TIM_OC3PreloadConfig, .-TIM_OC3PreloadConfig
	.section	.text.TIM_OC4PreloadConfig,"ax",%progbits
	.align	2
	.global	TIM_OC4PreloadConfig
	.thumb
	.thumb_func
	.type	TIM_OC4PreloadConfig, %function
TIM_OC4PreloadConfig:
.LFB124:
	.loc 1 1328 0
	.cfi_startproc
	@ args = 0, pretend = 0, frame = 0
	@ frame_needed = 0, uses_anonymous_args = 0
	@ link register save eliminated.
.LVL77:
	.loc 1 1335 0
	ldrh	r3, [r0, #28]
.LVL78:
	.loc 1 1338 0
	bic	r3, r3, #2048
.LVL79:
	lsls	r3, r3, #16
	lsrs	r3, r3, #16
.LVL80:
	.loc 1 1341 0
	orr	r1, r3, r1, lsl #8
.LVL81:
	uxth	r3, r1
.LVL82:
	.loc 1 1344 0
	strh	r3, [r0, #28]	@ movhi
	bx	lr
	.cfi_endproc
.LFE124:
	.size	TIM_OC4PreloadConfig, .-TIM_OC4PreloadConfig
	.section	.text.TIM_ITConfig,"ax",%progbits
	.align	2
	.global	TIM_ITConfig
	.thumb
	.thumb_func
	.type	TIM_ITConfig, %function
TIM_ITConfig:
.LFB125:
	.loc 1 2374 0
	.cfi_startproc
	@ args = 0, pretend = 0, frame = 0
	@ frame_needed = 0, uses_anonymous_args = 0
	@ link register save eliminated.
.LVL83:
	.loc 1 2383 0
	ldrh	r3, [r0, #12]
	uxth	r3, r3
	.loc 1 2380 0
	cbnz	r2, .L51
	.loc 1 2388 0
	bic	r1, r3, r1
.LVL84:
	strh	r1, [r0, #12]	@ movhi
	bx	lr
.LVL85:
.L51:
	.loc 1 2383 0
	orrs	r1, r1, r3
.LVL86:
	strh	r1, [r0, #12]	@ movhi
	bx	lr
	.cfi_endproc
.LFE125:
	.size	TIM_ITConfig, .-TIM_ITConfig
	.text
.Letext0:
	.file 2 "c:/yagarto/lib/gcc/../../arm-none-eabi/sys-include/stdint.h"
	.file 3 "./added/stm32f4xx.h"
	.file 4 "./added/stm32f4xx_tim.h"
	.file 5 "./added/core_cm4.h"