	.syntax unified
	.cpu cortex-m4
	.fpu softvfp
	.eabi_attribute 20, 1
	.eabi_attribute 21, 1
	.eabi_attribute 23, 3
	.eabi_attribute 24, 1
	.eabi_attribute 25, 1
	.eabi_attribute 26, 1
	.eabi_attribute 30, 2
	.eabi_attribute 34, 1
	.eabi_attribute 18, 4
	.thumb
	.file	"misc.c"
	.text
.Ltext0:
	.cfi_sections	.debug_frame
	.section	.text.NVIC_PriorityGroupConfig,"ax",%progbits
	.align	2
	.global	NVIC_PriorityGroupConfig
	.thumb
	.thumb_func
	.type	NVIC_PriorityGroupConfig, %function
NVIC_PriorityGroupConfig:
.LFB112:
	.file 1 "./added/misc.c"
	.loc 1 120 0
	.cfi_startproc
	@ args = 0, pretend = 0, frame = 0
	@ frame_needed = 0, uses_anonymous_args = 0
	@ link register save eliminated.
.LVL0:
	.loc 1 125 0
	mov	r3, #60672
	orr	r0, r0, #100139008
.LVL1:
	movt	r3, 57344
	orr	r0, r0, #131072
	str	r0, [r3, #12]
	bx	lr
	.cfi_endproc
.LFE112:
	.size	NVIC_PriorityGroupConfig, .-NVIC_PriorityGroupConfig
	.section	.text.NVIC_Init,"ax",%progbits
	.align	2
	.global	NVIC_Init
	.thumb
	.thumb_func
	.type	NVIC_Init, %function
NVIC_Init:
.LFB113:
	.loc 1 138 0
	.cfi_startproc
	@ args = 0, pretend = 0, frame = 0
	@ frame_needed = 0, uses_anonymous_args = 0
	@ link register save eliminated.
.LVL2:
	.loc 1 146 0
	ldrb	r3, [r0, #3]	@ zero_extendqisi2
	.loc 1 138 0
	push	{r4, r5}
.LCFI0:
	.cfi_def_cfa_offset 8
	.cfi_offset 4, -8
	.cfi_offset 5, -4
	.loc 1 146 0
	cbnz	r3, .L6
	.loc 1 167 0
	ldrb	r2, [r0, #0]	@ zero_extendqisi2
	mov	r3, #57600
	lsrs	r1, r2, #5
	movt	r3, 57344
	.loc 1 168 0
	and	r2, r2, #31
	.loc 1 167 0
	adds	r1, r1, #32
	.loc 1 168 0
	movs	r0, #1
.LVL3:
	lsl	r2, r0, r2
	.loc 1 167 0
	str	r2, [r3, r1, lsl #2]
.LVL4:
.L2:
	.loc 1 170 0
	pop	{r4, r5}
	bx	lr
.LVL5:
.L6:
	.loc 1 149 0
	mov	r3, #60672
	movt	r3, 57344
	.loc 1 153 0
	ldrb	r5, [r0, #1]	@ zero_extendqisi2
	.loc 1 149 0
	ldr	r2, [r3, #12]
	.loc 1 154 0
	ldrb	r4, [r0, #2]	@ zero_extendqisi2
	.loc 1 158 0
	ldrb	r3, [r0, #0]	@ zero_extendqisi2
	.loc 1 149 0
	mvns	r2, r2
	ubfx	r2, r2, #8, #3
.LVL6:
	.loc 1 150 0
	rsb	r1, r2, #4
	.loc 1 153 0
	uxtb	r1, r1
	lsl	r1, r5, r1
	.loc 1 151 0
	movs	r5, #15
	asr	r2, r5, r2
.LVL7:
	.loc 1 153 0
	uxtb	r1, r1
.LVL8:
	.loc 1 154 0
	ands	r2, r2, r4
	orrs	r2, r2, r1
.LVL9:
	.loc 1 158 0
	add	r3, r3, #-536870912
	add	r3, r3, #57600
	.loc 1 156 0
	lsls	r2, r2, #4
.LVL10:
	uxtb	r2, r2
.LVL11:
	.loc 1 158 0
	strb	r2, [r3, #768]
	.loc 1 161 0
	ldrb	r2, [r0, #0]	@ zero_extendqisi2
.LVL12:
	.loc 1 158 0
	mov	r3, #57600
	.loc 1 161 0
	lsrs	r1, r2, #5
	.loc 1 158 0
	movt	r3, 57344
	.loc 1 162 0
	and	r2, r2, #31
	movs	r0, #1
.LVL13:
	lsl	r2, r0, r2
	.loc 1 161 0
	str	r2, [r3, r1, lsl #2]
	b	.L2
	.cfi_endproc
.LFE113:
	.size	NVIC_Init, .-NVIC_Init
	.section	.text.NVIC_SetVectorTable,"ax",%progbits
	.align	2
	.global	NVIC_SetVectorTable
	.thumb
	.thumb_func
	.type	NVIC_SetVectorTable, %function
NVIC_SetVectorTable:
.LFB114:
	.loc 1 182 0
	.cfi_startproc
	@ args = 0, pretend = 0, frame = 0
	@ frame_needed = 0, uses_anonymous_args = 0
	@ link register save eliminated.
.LVL14:
	.loc 1 187 0
	bic	r1, r1, #-536870912
.LVL15:
	mov	r3, #60672
	bic	r1, r1, #127
	movt	r3, 57344
	orrs	r0, r0, r1
.LVL16:
	str	r0, [r3, #8]
	bx	lr
	.cfi_endproc
.LFE114:
	.size	NVIC_SetVectorTable, .-NVIC_SetVectorTable
	.section	.text.NVIC_SystemLPConfig,"ax",%progbits
	.align	2
	.global	NVIC_SystemLPConfig
	.thumb
	.thumb_func
	.type	NVIC_SystemLPConfig, %function
NVIC_SystemLPConfig:
.LFB115:
	.loc 1 201 0
	.cfi_startproc
	@ args = 0, pretend = 0, frame = 0
	@ frame_needed = 0, uses_anonymous_args = 0
	@ link register save eliminated.
.LVL17:
	.loc 1 208 0
	mov	r3, #60672
	movt	r3, 57344
	ldr	r2, [r3, #16]
	.loc 1 206 0
	cbnz	r1, .L11
	.loc 1 212 0
	bic	r0, r2, r0
.LVL18:
	str	r0, [r3, #16]
	bx	lr
.LVL19:
.L11:
	.loc 1 208 0
	orrs	r0, r0, r2
.LVL20:
	str	r0, [r3, #16]
	bx	lr
	.cfi_endproc
.LFE115:
	.size	NVIC_SystemLPConfig, .-NVIC_SystemLPConfig
	.section	.text.SysTick_CLKSourceConfig,"ax",%progbits
	.align	2
	.global	SysTick_CLKSourceConfig
	.thumb
	.thumb_func
	.type	SysTick_CLKSourceConfig, %function
SysTick_CLKSourceConfig:
.LFB116:
	.loc 1 225 0
	.cfi_startproc
	@ args = 0, pretend = 0, frame = 0
	@ frame_needed = 0, uses_anonymous_args = 0
	@ link register save eliminated.
.LVL21:
	.loc 1 230 0
	movw	r3, #57360
	movt	r3, 57344
	.loc 1 228 0
	cmp	r0, #4
	.loc 1 230 0
	ldr	r2, [r3, #0]
	ite	eq
	orreq	r2, r2, #4
	.loc 1 234 0
	bicne	r2, r2, #4
	str	r2, [r3, #0]
	bx	lr
	.cfi_endproc
.LFE116:
	.size	SysTick_CLKSourceConfig, .-SysTick_CLKSourceConfig
	.text
.Letext0:
	.file 2 "c:/yagarto/lib/gcc/../../arm-none-eabi/sys-include/stdint.h"
	.file 3 "./added/core_cm4.h"
	.file 4 "./added/stm32f4xx.h"
	.file 5 "./added/misc.h"