	.syntax unified
	.cpu cortex-m4
	.fpu softvfp
	.eabi_attribute 20, 1
	.eabi_attribute 21, 1
	.eabi_attribute 23, 3
	.eabi_attribute 24, 1
	.eabi_attribute 25, 1
	.eabi_attribute 26, 1
	.eabi_attribute 30, 2
	.eabi_attribute 34, 1
	.eabi_attribute 18, 4
	.thumb
	.file	"stm32f4xx_it.c"
	.text
.Ltext0:
	.cfi_sections	.debug_frame
	.section	.text.NMI_Handler,"ax",%progbits
	.align	2
	.global	NMI_Handler
	.thumb
	.thumb_func
	.type	NMI_Handler, %function
NMI_Handler:
.LFB112:
	.file 1 "stm32f4xx_it.c"
	.loc 1 65 0
	.cfi_startproc
	@ args = 0, pretend = 0, frame = 0
	@ frame_needed = 0, uses_anonymous_args = 0
	@ link register save eliminated.
	bx	lr
	.cfi_endproc
.LFE112:
	.size	NMI_Handler, .-NMI_Handler
	.section	.text.HardFault_Handler,"ax",%progbits
	.align	2
	.global	HardFault_Handler
	.thumb
	.thumb_func
	.type	HardFault_Handler, %function
HardFault_Handler:
.LFB113:
	.loc 1 74 0
	.cfi_startproc
	@ Volatile: function does not return.
	@ args = 0, pretend = 0, frame = 0
	@ frame_needed = 0, uses_anonymous_args = 0
	@ link register save eliminated.
.L3:
	b	.L3
	.cfi_endproc
.LFE113:
	.size	HardFault_Handler, .-HardFault_Handler
	.section	.text.MemManage_Handler,"ax",%progbits
	.align	2
	.global	MemManage_Handler
	.thumb
	.thumb_func
	.type	MemManage_Handler, %function
MemManage_Handler:
.LFB114:
	.loc 1 86 0
	.cfi_startproc
	@ Volatile: function does not return.
	@ args = 0, pretend = 0, frame = 0
	@ frame_needed = 0, uses_anonymous_args = 0
	@ link register save eliminated.
.L5:
	b	.L5
	.cfi_endproc
.LFE114:
	.size	MemManage_Handler, .-MemManage_Handler
	.section	.text.BusFault_Handler,"ax",%progbits
	.align	2
	.global	BusFault_Handler
	.thumb
	.thumb_func
	.type	BusFault_Handler, %function
BusFault_Handler:
.LFB115:
	.loc 1 98 0
	.cfi_startproc
	@ Volatile: function does not return.
	@ args = 0, pretend = 0, frame = 0
	@ frame_needed = 0, uses_anonymous_args = 0
	@ link register save eliminated.
.L7:
	b	.L7
	.cfi_endproc
.LFE115:
	.size	BusFault_Handler, .-BusFault_Handler
	.section	.text.UsageFault_Handler,"ax",%progbits
	.align	2
	.global	UsageFault_Handler
	.thumb
	.thumb_func
	.type	UsageFault_Handler, %function
UsageFault_Handler:
.LFB116:
	.loc 1 110 0
	.cfi_startproc
	@ Volatile: function does not return.
	@ args = 0, pretend = 0, frame = 0
	@ frame_needed = 0, uses_anonymous_args = 0
	@ link register save eliminated.
.L9:
	b	.L9
	.cfi_endproc
.LFE116:
	.size	UsageFault_Handler, .-UsageFault_Handler
	.section	.text.DebugMon_Handler,"ax",%progbits
	.align	2
	.global	DebugMon_Handler
	.thumb
	.thumb_func
	.type	DebugMon_Handler, %function
DebugMon_Handler:
.LFB117:
	.loc 1 122 0
	.cfi_startproc
	@ args = 0, pretend = 0, frame = 0
	@ frame_needed = 0, uses_anonymous_args = 0
	@ link register save eliminated.
	bx	lr
	.cfi_endproc
.LFE117:
	.size	DebugMon_Handler, .-DebugMon_Handler
	.section	.text.SVC_Handler,"ax",%progbits
	.align	2
	.global	SVC_Handler
	.thumb
	.thumb_func
	.type	SVC_Handler, %function
SVC_Handler:
.LFB118:
	.loc 1 130 0
	.cfi_startproc
	@ args = 0, pretend = 0, frame = 0
	@ frame_needed = 0, uses_anonymous_args = 0
	@ link register save eliminated.
	bx	lr
	.cfi_endproc
.LFE118:
	.size	SVC_Handler, .-SVC_Handler
	.section	.text.PendSV_Handler,"ax",%progbits
	.align	2
	.global	PendSV_Handler
	.thumb
	.thumb_func
	.type	PendSV_Handler, %function
PendSV_Handler:
.LFB119:
	.loc 1 138 0
	.cfi_startproc
	@ args = 0, pretend = 0, frame = 0
	@ frame_needed = 0, uses_anonymous_args = 0
	@ link register save eliminated.
	bx	lr
	.cfi_endproc
.LFE119:
	.size	PendSV_Handler, .-PendSV_Handler
	.section	.text.SysTick_Handler,"ax",%progbits
	.align	2
	.global	SysTick_Handler
	.thumb
	.thumb_func
	.type	SysTick_Handler, %function
SysTick_Handler:
.LFB120:
	.loc 1 146 0
	.cfi_startproc
	@ args = 0, pretend = 0, frame = 0
	@ frame_needed = 0, uses_anonymous_args = 0
	@ link register save eliminated.
	bx	lr
	.cfi_endproc
.LFE120:
	.size	SysTick_Handler, .-SysTick_Handler
	.global	capture
	.section	.bss.capture,"aw",%nobits
	.align	1
	.type	capture, %object
	.size	capture, 2
capture:
	.space	2
	.text
.Letext0:
	.file 2 "c:/yagarto/lib/gcc/../../arm-none-eabi/sys-include/stdint.h"
	.file 3 "./added/core_cm4.h"